; Function Attrs: mustprogress uwtable
define hidden noundef nonnull ptr @ncnn_option_create() local_unnamed_addr #1 personality ptr @__gxx_personality_v0 {
  %1 = tail call noalias noundef nonnull dereferenceable(64) ptr @_Znwm(i64 noundef 64) #24
  invoke void @_ZN4ncnn6OptionC1Ev(ptr noundef nonnull align 8 dereferenceable(64) %1)
          to label %2 unwind label %3

2:                                                ; preds = %0
  ret ptr %1

3:                                                ; preds = %0
  %4 = landingpad { ptr, i32 }
          cleanup
  tail call void @_ZdlPvm(ptr noundef nonnull %1, i64 noundef 64) #25
  resume { ptr, i32 } %4
}